target datalayout = "e-m:e-p270:32:32-p271:32:32-p272:64:64-i64:64-i128:128-f80:128-n8:16:32:64-S128"
target triple = "x86_64-pc-linux-gnu"

; Function Attrs: nounwind uwtable
define internal i64 @size_of_matrix_type(i32 noundef %0) #0 {
  %2 = alloca i32, align 4
  %3 = alloca i64, align 8
  store i32 %0, ptr %2, align 4, !tbaa !17
  call void @llvm.lifetime.start.p0(i64 8, ptr %3) #11
  store i64 0, ptr %3, align 8, !tbaa !52
  %4 = load i32, ptr %2, align 4, !tbaa !17
  switch i32 %4, label %10 [
    i32 1, label %5
    i32 2, label %6
    i32 4, label %7
    i32 8, label %8
    i32 16, label %9
  ]

5:                                                ; preds = %1
  store i64 8, ptr %3, align 8, !tbaa !52
  br label %11

6:                                                ; preds = %1
  store i64 16, ptr %3, align 8, !tbaa !52
  br label %11

7:                                                ; preds = %1
  store i64 4, ptr %3, align 8, !tbaa !52
  br label %11

8:                                                ; preds = %1
  store i64 0, ptr %3, align 8, !tbaa !52
  br label %11

9:                                                ; preds = %1
  store i64 0, ptr %3, align 8, !tbaa !52
  br label %11

10:                                               ; preds = %1
  store i64 0, ptr %3, align 8, !tbaa !52
  br label %11

11:                                               ; preds = %10, %9, %8, %7, %6, %5
  %12 = load i64, ptr %3, align 8, !tbaa !52
  call void @llvm.lifetime.end.p0(i64 8, ptr %3) #11
  ret i64 %12
}

; Function Attrs: nounwind uwtable
define ptr @SparseMatrix_new(i32 noundef %0, i32 noundef %1, i32 noundef %2, i32 noundef %3, i32 noundef %4) #0 {
  %6 = alloca i32, align 4
  %7 = alloca i32, align 4
  %8 = alloca i32, align 4
  %9 = alloca i32, align 4
  %10 = alloca i32, align 4
  %11 = alloca ptr, align 8
  %12 = alloca i64, align 8
  store i32 %0, ptr %6, align 4, !tbaa !17
  store i32 %1, ptr %7, align 4, !tbaa !17
  store i32 %2, ptr %8, align 4, !tbaa !17
  store i32 %3, ptr %9, align 4, !tbaa !17
  store i32 %4, ptr %10, align 4, !tbaa !17
  call void @llvm.lifetime.start.p0(i64 8, ptr %11) #11
  call void @llvm.lifetime.start.p0(i64 8, ptr %12) #11
  %13 = load i32, ptr %9, align 4, !tbaa !17
  %14 = call i64 @size_of_matrix_type(i32 noundef %13)
  store i64 %14, ptr %12, align 8, !tbaa !52
  %15 = load i32, ptr %6, align 4, !tbaa !17
  %16 = load i32, ptr %7, align 4, !tbaa !17
  %17 = load i32, ptr %9, align 4, !tbaa !17
  %18 = load i64, ptr %12, align 8, !tbaa !52
  %19 = load i32, ptr %10, align 4, !tbaa !17
  %20 = call ptr @SparseMatrix_init(i32 noundef %15, i32 noundef %16, i32 noundef %17, i64 noundef %18, i32 noundef %19)
  store ptr %20, ptr %11, align 8, !tbaa !3
  %21 = load i32, ptr %8, align 4, !tbaa !17
  %22 = icmp sgt i32 %21, 0
  br i1 %22, label %23, label %27

23:                                               ; preds = %5
  %24 = load ptr, ptr %11, align 8, !tbaa !3
  %25 = load i32, ptr %8, align 4, !tbaa !17
  %26 = call ptr @SparseMatrix_alloc(ptr noundef %24, i32 noundef %25)
  store ptr %26, ptr %11, align 8, !tbaa !3
  br label %27

27:                                               ; preds = %23, %5
  %28 = load ptr, ptr %11, align 8, !tbaa !3
  call void @llvm.lifetime.end.p0(i64 8, ptr %12) #11
  call void @llvm.lifetime.end.p0(i64 8, ptr %11) #11
  ret ptr %28
}