; Function Attrs: nofree nounwind uwtable
define noalias noundef ptr @SparseMatrix_new(i32 noundef %0, i32 noundef %1, i32 noundef %2, i32 noundef %3, i32 noundef %4) local_unnamed_addr #4 {
  %switch.tableidx = add i32 %3, -1
  %6 = icmp ult i32 %switch.tableidx, 4
  br i1 %6, label %switch.lookup, label %size_of_matrix_type.exit

switch.lookup:                                    ; preds = %5
  %7 = zext nneg i32 %switch.tableidx to i64
  %switch.gep = getelementptr inbounds nuw [4 x i64], ptr @switch.table.SparseMatrix_multiply3, i64 0, i64 %7
  %switch.load = load i64, ptr %switch.gep, align 8
  br label %size_of_matrix_type.exit

size_of_matrix_type.exit:                         ; preds = %5, %switch.lookup
  %.0.i = phi i64 [ %switch.load, %switch.lookup ], [ 0, %5 ]
  %8 = tail call fastcc ptr @SparseMatrix_init(i32 noundef %0, i32 noundef %1, i32 noundef %3, i64 noundef %.0.i, i32 noundef %4)
  %9 = icmp sgt i32 %2, 0
  br i1 %9, label %10, label %12

10:                                               ; preds = %size_of_matrix_type.exit
  %11 = tail call fastcc ptr @SparseMatrix_alloc(ptr noundef %8, i32 noundef %2)
  br label %12

12:                                               ; preds = %10, %size_of_matrix_type.exit
  ret ptr %8
}